target datalayout = "e-m:e-p270:32:32-p271:32:32-p272:64:64-i64:64-i128:128-f80:128-n8:16:32:64-S128"
target triple = "x86_64-pc-linux-gnu"

%"class.std::__1::ios_base" = type { ptr, i32, i64, i64, i32, i32, ptr, ptr, ptr, ptr, i64, i64, ptr, i64, i64, ptr, i64, i64 }
%class.anon.65 = type { i8 }

; Function Attrs: mustprogress nounwind uwtable
define linkonce_odr hidden noundef zeroext i1 @_ZNKSt3__18ios_base4failB8ne190000Ev(ptr noundef nonnull align 8 dereferenceable(136) %0) #1 comdat align 2 {
  %2 = alloca ptr, align 8
  store ptr %0, ptr %2, align 8
  %3 = load ptr, ptr %2, align 8
  %4 = getelementptr inbounds %"class.std::__1::ios_base", ptr %3, i32 0, i32 4
  %5 = load i32, ptr %4, align 8
  %6 = and i32 %5, 5
  %7 = icmp ne i32 %6, 0
  ret i1 %7
}

; Function Attrs: mustprogress uwtable
define linkonce_odr hidden noundef zeroext i1 @_ZNKSt3__19basic_iosIcNS_11char_traitsIcEEE4failB8ne190000Ev(ptr noundef nonnull align 8 dereferenceable(148) %0) #4 comdat align 2 {
  %2 = alloca ptr, align 8
  store ptr %0, ptr %2, align 8
  %3 = load ptr, ptr %2, align 8
  %4 = call noundef zeroext i1 @_ZNKSt3__18ios_base4failB8ne190000Ev(ptr noundef nonnull align 8 dereferenceable(136) %3)
  ret i1 %4
}

; Function Attrs: mustprogress uwtable
define linkonce_odr hidden noundef zeroext i1 @_ZNKSt3__19basic_iosIcNS_11char_traitsIcEEEntB8ne190000Ev(ptr noundef nonnull align 8 dereferenceable(148) %0) #4 comdat align 2 {
  %2 = alloca ptr, align 8
  store ptr %0, ptr %2, align 8
  %3 = load ptr, ptr %2, align 8
  %4 = call noundef zeroext i1 @_ZNKSt3__19basic_iosIcNS_11char_traitsIcEEE4failB8ne190000Ev(ptr noundef nonnull align 8 dereferenceable(148) %3)
  ret i1 %4
}

; Function Attrs: mustprogress uwtable
define internal noundef i32 @"_ZZNK3tev15StbiImageLoader4loadERNSt3__113basic_istreamIcNS1_11char_traitsIcEEEERKNS1_4__fs10filesystem4pathERKNS1_12basic_stringIcS4_NS1_9allocatorIcEEEEiENK3$_2clEPv"(ptr noundef nonnull align 1 dereferenceable(1) %0, ptr noundef %1) #4 align 2 {
  %3 = alloca ptr, align 8
  %4 = alloca ptr, align 8
  store ptr %0, ptr %3, align 8
  store ptr %1, ptr %4, align 8
  %5 = load ptr, ptr %4, align 8
  %6 = load ptr, ptr %5, align 8
  %7 = getelementptr i8, ptr %6, i64 -24
  %8 = load i64, ptr %7, align 8
  %9 = getelementptr inbounds i8, ptr %5, i64 %8
  %10 = call noundef zeroext i1 @_ZNKSt3__19basic_iosIcNS_11char_traitsIcEEEntB8ne190000Ev(ptr noundef nonnull align 8 dereferenceable(148) %9)
  %11 = xor i1 %10, true
  %12 = zext i1 %11 to i32
  ret i32 %12
}

; Function Attrs: mustprogress uwtable
define internal noundef i32 @"_ZZNK3tev15StbiImageLoader4loadERNSt3__113basic_istreamIcNS1_11char_traitsIcEEEERKNS1_4__fs10filesystem4pathERKNS1_12basic_stringIcS4_NS1_9allocatorIcEEEEiEN3$_28__invokeEPv"(ptr noundef %0) #4 align 2 {
  %2 = alloca ptr, align 8
  %3 = alloca %class.anon.65, align 1
  store ptr %0, ptr %2, align 8
  %4 = load ptr, ptr %2, align 8
  %5 = call noundef i32 @"_ZZNK3tev15StbiImageLoader4loadERNSt3__113basic_istreamIcNS1_11char_traitsIcEEEERKNS1_4__fs10filesystem4pathERKNS1_12basic_stringIcS4_NS1_9allocatorIcEEEEiENK3$_2clEPv"(ptr noundef nonnull align 1 dereferenceable(1) %3, ptr noundef %4)
  ret i32 %5
}