; Function Attrs: mustprogress nofree norecurse nosync nounwind willreturn memory(read, inaccessiblemem: none) uwtable
define internal noundef i32 @"_ZZNK3tev15StbiImageLoader4loadERNSt3__113basic_istreamIcNS1_11char_traitsIcEEEERKNS1_4__fs10filesystem4pathERKNS1_12basic_stringIcS4_NS1_9allocatorIcEEEEiEN3$_28__invokeEPv"(ptr nocapture noundef readonly %0) #7 align 2 {
  %2 = load ptr, ptr %0, align 8
  %3 = getelementptr i8, ptr %2, i64 -24
  %4 = load i64, ptr %3, align 8
  %5 = getelementptr inbounds i8, ptr %0, i64 %4
  %6 = getelementptr inbounds i8, ptr %5, i64 32
  %7 = load i32, ptr %6, align 8
  %8 = and i32 %7, 5
  %.not.i = icmp eq i32 %8, 0
  %9 = zext i1 %.not.i to i32
  ret i32 %9
}